(dp1
S'session'
p2
(dp3
S'picture'
p4
Vhttps://lh3.googleusercontent.com/-XdUIqdMkCWA/AAAAAAAAAAI/AAAAAAAAAAA/4252rscbv5M/photo.jpg
p5
sS'_accessed_time'
p6
F1508529070.2723651
sS'email'
p7
Vwendywenxiao@gmail.com
p8
sS'_creation_time'
p9
F1508528776.188128
sS'name'
p10
VJane Wen
p11
ss.